; Function Attrs: mustprogress nofree norecurse nosync nounwind willreturn memory(argmem: write) uwtable
define void @_ZN7glslang7TShader10setStringsEPKPKci(ptr noundef nonnull writeonly align 8 captures(none) dereferenceable(165) initializes((48, 64), (72, 76)) %0, ptr noundef %1, i32 noundef %2) local_unnamed_addr #7 align 2 {
  %4 = getelementptr inbounds nuw i8, ptr %0, i64 48
  store ptr %1, ptr %4, align 8
  %5 = getelementptr inbounds nuw i8, ptr %0, i64 72
  store i32 %2, ptr %5, align 8
  %6 = getelementptr inbounds nuw i8, ptr %0, i64 56
  store ptr null, ptr %6, align 8
  ret void
}